	.file	"hmcmd.c"
	.section .text
.Ltext0:
	.cfi_sections	.debug_frame
	.section	.rodata.str1.1,"aMS",@progbits,1
.LC0:
	.string	"additional commands and tests by University of Applied Sciences Munich"
.LC1:
	.string	""
.LC2:
	.string	"hmcmd"
	.section .text
	.align	4
.proc	module_hmcmd_init
	.global module_hmcmd_init
	.type	module_hmcmd_init, @function
module_hmcmd_init:
.LFB1:
	.file 1 "hmcmd.c"
	.loc 1 216 0
	.cfi_startproc
	l.sw    	-8(r1),r2	 # SI store
	.loc 1 217 0
	l.movhi  	r6,hi(hmcmd_cmd) # movsi_high
	.cfi_offset 2, -8
	.loc 1 216 0
	l.addi  	r2,r1,0 # addsi3
	.cfi_def_cfa_register 2
	.loc 1 217 0
	l.movhi  	r5,hi(.LC0) # movsi_high
	l.movhi  	r4,hi(.LC1) # movsi_high
	l.movhi  	r3,hi(.LC2) # movsi_high
	.loc 1 216 0
	l.sw    	-4(r1),r9	 # SI store
	.loc 1 217 0
	l.ori   	r6,r6,lo(hmcmd_cmd) # movsi_lo_sum
	.loc 1 216 0
	l.addi	r1,r1,-8	# allocate frame
	.cfi_offset 9, -4
	.loc 1 217 0
	l.ori   	r5,r5,lo(.LC0) # movsi_lo_sum
	l.ori   	r4,r4,lo(.LC1) # movsi_lo_sum
	l.jal   	register_command_func# call_internal	# delay slot filled
	l.ori   	r3,r3,lo(.LC2) # movsi_lo_sum
.LVL0:
	.loc 1 218 0
	l.ori	r1,r2,0	# deallocate frame
	l.lwz   	r9,-4(r1)	 # SI load
	l.jr    	r9	# return_internal	# delay slot filled
	l.lwz   	r2,-8(r1)	 # SI load
	.cfi_endproc
.LFE1:
	.size	module_hmcmd_init, .-module_hmcmd_init
	.section	.rodata.str1.1
.LC3:
	.string	"lololol %d %d %d %d"
.LC4:
	.string	"DURATION: %d\n"
.LC5:
	.string	"CYCLES:   %d\n"
	.section .text
	.align	4
.proc	mips_measurement
	.global mips_measurement
	.type	mips_measurement, @function
mips_measurement:
.LFB2:
	.loc 1 221 0
	.cfi_startproc
.LVL1:
	l.sw    	-8(r1),r2	 # SI store
	.loc 1 228 0
	l.movhi  	r11,hi(timestamp) # movsi_high
	.cfi_offset 2, -8
	.loc 1 221 0
	l.addi  	r2,r1,0 # addsi3
	.cfi_def_cfa_register 2
	l.sw    	-12(r1),r18	 # SI store
	l.sw    	-4(r1),r9	 # SI store
	l.sw    	-16(r1),r14	 # SI store
	.loc 1 228 0
	l.ori   	r11,r11,lo(timestamp) # movsi_lo_sum
	.loc 1 221 0
	l.addi	r1,r1,-32	# allocate frame
	.cfi_offset 18, -12
	.cfi_offset 9, -4
	.cfi_offset 14, -16
	.loc 1 228 0
	l.lwz   	r18,0(r11)	 # SI load
.LVL2:
	.loc 1 229 0
#APP
# 229 "hmcmd.c" 1
	l.nop
# 0 "" 2
	.loc 1 230 0
# 230 "hmcmd.c" 1
	l.nop
# 0 "" 2
.LVL3:
#NO_APP
	l.movhi 	r3,hi(9961472)	 # move immediate M
	.loc 1 226 0
	l.addi  	r4,r0,99	 # move immediate I
	.loc 1 230 0
	l.ori   	r3,r3,38528 # iorsi3
	.loc 1 225 0
	l.addi  	r5,r0,1	 # move immediate I
	.loc 1 224 0
	l.addi  	r7,r0,2	 # move immediate I
.LVL4:
.L3:
.LBB3:
	.loc 1 235 0 discriminator 3
	l.add   	r6,r4,r4 # addsi3
	l.addi  	r3,r3,-1 # addsi3
	l.slli  	r8,r6,2 # ashlsi3
	.loc 1 231 0 discriminator 3
	l.sfnei	r3,0 # cmpsi_ne
	.loc 1 233 0 discriminator 3
	l.add   	r7,r7,r5 # addsi3
.LVL5:
	.loc 1 234 0 discriminator 3
	l.sub   	r5,r5,r4 # subsi3
.LVL6:
	.loc 1 231 0 discriminator 3
	l.bf	.L3	# delay slot filled
	l.add   	r4,r6,r8 # addsi3
.LBE3:
	.loc 1 237 0
#APP
# 237 "hmcmd.c" 1
	l.nop
# 0 "" 2
	.loc 1 238 0
# 238 "hmcmd.c" 1
	l.nop
# 0 "" 2
	.loc 1 239 0
#NO_APP
	l.lwz   	r3,0(r11)	 # SI load
.LVL7:
	.loc 1 242 0
	l.movhi 	r14,hi(49938432)	 # move immediate M
	.loc 1 240 0
	l.sub   	r18,r3,r18 # subsi3
.LVL8:
	.loc 1 241 0
	l.addi  	r3,r0,100	 # move immediate I
.LVL9:
	.loc 1 242 0
	l.ori   	r14,r14,61568 # iorsi3
	.loc 1 241 0
	l.div   	r3,r18,r3 # divsi3
.LVL10:
	.loc 1 242 0
	l.mul   	r14,r3,r14 # mulsi3
.LVL11:
	.loc 1 245 0
	l.addi  	r6,r0,10	 # move immediate I
	l.movhi  	r3,hi(.LC3) # movsi_high
	l.sw    	12(r1),r6	 # SI store
	l.sw    	8(r1),r4	 # SI store
	l.sw    	4(r1),r5	 # SI store
	l.sw    	0(r1),r7	 # SI store
	l.jal   	printf # call_value_internal	# delay slot filled
	l.ori   	r3,r3,lo(.LC3) # movsi_lo_sum
.LVL12:
	.loc 1 246 0
	l.movhi  	r3,hi(.LC4) # movsi_high
	l.sw    	0(r1),r18	 # SI store
	l.jal   	printf # call_value_internal	# delay slot filled
	l.ori   	r3,r3,lo(.LC4) # movsi_lo_sum
.LVL13:
	.loc 1 247 0
	l.movhi 	r3,hi(-40042496)	 # move immediate M
	l.ori   	r3,r3,42496 # iorsi3
	l.add   	r14,r14,r3 # addsi3
.LVL14:
	l.movhi  	r3,hi(.LC5) # movsi_high
	l.sw    	0(r1),r14	 # SI store
	l.jal   	printf # call_value_internal	# delay slot filled
	l.ori   	r3,r3,lo(.LC5) # movsi_lo_sum
.LVL15:
	.loc 1 248 0
	l.ori	r1,r2,0	# deallocate frame
	l.lwz   	r9,-4(r1)	 # SI load
	l.lwz   	r2,-8(r1)	 # SI load
	l.lwz   	r14,-16(r1)	 # SI load
.LVL16:
	l.jr    	r9	# return_internal	# delay slot filled
	l.lwz   	r18,-12(r1)	 # SI load
	.cfi_endproc
.LFE2:
	.size	mips_measurement, .-mips_measurement
	.section	.rodata.str1.1
.LC6:
	.string	"FORWARD TRUE\n"
.LC7:
	.string	"DURATION A) %d\n"
.LC8:
	.string	"CYCLES   A) %d\n"
	.global __floatsisf
.LC9:
	.string	"CPI: %d.%d%d\n\n"
	.global __mulsf3
	.global __fixsfsi
.LC12:
	.string	"FORWARD FALSE\n"
.LC13:
	.string	"DURATION B) %d\n"
.LC14:
	.string	"CYCLES   B) %d\n"
.LC15:
	.string	"BACKWARDS TRUE\n"
.LC16:
	.string	"DURATION C) %d\n"
.LC17:
	.string	"CYCLES   C) %d\n"
.LC18:
	.string	"CPI: %d.%d%d ... maybe?\n\n"
.LC19:
	.string	"BACKWARDS FALSE\n"
.LC20:
	.string	"DURATION D) %d\n"
.LC21:
	.string	"CYCLES   D) %d\n"
.LC22:
	.string	"CPI: %d.%d%d ... maybe?\n"
	.section	.rodata.cst4,"aM",@progbits,4
	.align	4
.LC10:
	.long	1120403456
	.align	4
.LC11:
	.long	1092616192
	.section .text
	.align	4
.proc	branch_measurement
	.global branch_measurement
	.type	branch_measurement, @function
branch_measurement:
.LFB3:
	.loc 1 251 0
	.cfi_startproc
	l.sw    	-8(r1),r2	 # SI store
	.loc 1 253 0
	l.movhi  	r3,hi(.LC6) # movsi_high
	.cfi_offset 2, -8
	.loc 1 251 0
	l.addi  	r2,r1,0 # addsi3
	.cfi_def_cfa_register 2
	l.sw    	-20(r1),r22	 # SI store
	l.sw    	-4(r1),r9	 # SI store
	l.sw    	-32(r1),r14	 # SI store
	l.sw    	-28(r1),r18	 # SI store
	l.sw    	-24(r1),r20	 # SI store
	l.sw    	-16(r1),r24	 # SI store
	l.sw    	-12(r1),r26	 # SI store
	.loc 1 253 0
	l.ori   	r3,r3,lo(.LC6) # movsi_lo_sum
	.loc 1 251 0
	l.addi	r1,r1,-44	# allocate frame
	.cfi_offset 22, -20
	.cfi_offset 9, -4
	.cfi_offset 14, -32
	.cfi_offset 18, -28
	.cfi_offset 20, -24
	.cfi_offset 24, -16
	.cfi_offset 26, -12
	.loc 1 253 0
	l.jal   	printf # call_value_internal	# delay slot filled
	l.movhi  	r22,hi(timestamp) # movsi_high
.LVL17:
	.loc 1 256 0
	l.ori   	r22,r22,lo(timestamp) # movsi_lo_sum
	l.movhi 	r3,hi(9961472)	 # move immediate M
	l.lwz   	r5,0(r22)	 # SI load
.LVL18:
	l.ori   	r3,r3,38528 # iorsi3
.LVL19:
.L7:
.LBB4:
	.loc 1 259 0 discriminator 3
#APP
# 259 "hmcmd.c" 1
	l.sfeqi r0,0
l.bf 1f
l.nop
l.nop
1:
l.nop

# 0 "" 2
#NO_APP
	l.addi  	r3,r3,-1 # addsi3
	.loc 1 257 0 discriminator 3
	l.sfnei	r3,0 # cmpsi_ne
	l.bf	.L7
	l.nop			# nop delay slot
.LBE4:
	.loc 1 269 0
	l.lwz   	r3,0(r22)	 # SI load
.LVL20:
	.loc 1 271 0
	l.addi  	r4,r0,100	 # move immediate I
	.loc 1 270 0
	l.sub   	r5,r3,r5 # subsi3
.LVL21:
	.loc 1 272 0
	l.movhi 	r26,hi(49938432)	 # move immediate M
	.loc 1 271 0
	l.div   	r4,r5,r4 # divsi3
.LVL22:
	.loc 1 272 0
	l.ori   	r26,r26,61568 # iorsi3
	.loc 1 275 0
	l.movhi  	r3,hi(.LC7) # movsi_high
.LVL23:
	.loc 1 272 0
	l.mul   	r26,r4,r26 # mulsi3
.LVL24:
	.loc 1 273 0
	l.movhi 	r4,hi(-40042496)	 # move immediate M
	.loc 1 275 0
	l.sw    	0(r1),r5	 # SI store
	.loc 1 273 0
	l.ori   	r4,r4,42496 # iorsi3
	.loc 1 275 0
	l.ori   	r3,r3,lo(.LC7) # movsi_lo_sum
.LVL25:
	l.jal   	printf # call_value_internal	# delay slot filled
	l.add   	r26,r26,r4 # addsi3
.LVL26:
	.loc 1 276 0
	l.movhi  	r3,hi(.LC8) # movsi_high
	l.sw    	0(r1),r26	 # SI store
	l.ori   	r3,r3,lo(.LC8) # movsi_lo_sum
	l.jal   	printf # call_value_internal	# delay slot filled
	l.movhi  	r20,hi(.LC10) # movsi_high
.LVL27:
	.loc 1 278 0
	l.movhi 	r3,hi(9961472)	 # move immediate M
	.loc 1 279 0
	l.ori   	r20,r20,lo(.LC10) # movsi_lo_sum
	.loc 1 278 0
	l.ori   	r14,r3,38528 # iorsi3
	.loc 1 279 0
	l.addi  	r24,r0,10	 # move immediate I
	.loc 1 278 0
	l.jal   	__floatsisf # call_value_internal	# delay slot filled
	l.div   	r3,r26,r14 # divsi3
.LVL28:
	.loc 1 279 0
	l.lwz   	r4,0(r20)	 # movsf
	l.ori   	r3,r11,0	 # movsf
.LVL29:
	l.jal   	__mulsf3 # call_value_internal	# delay slot filled
	l.ori   	r26,r11,0	 # movsf
.LVL30:
	l.ori   	r3,r11,0	 # movsf
	l.jal   	__fixsfsi # call_value_internal	# delay slot filled
	l.movhi  	r18,hi(.LC11) # movsi_high
.LVL31:
	l.div   	r5,r11,r24 # divsi3
	l.add   	r5,r5,r5 # addsi3
	l.ori   	r18,r18,lo(.LC11) # movsi_lo_sum
	l.slli  	r6,r5,2 # ashlsi3
	l.lwz   	r4,0(r18)	 # movsf
	l.add   	r5,r5,r6 # addsi3
	l.ori   	r3,r26,0	 # movsf
	l.sub   	r11,r11,r5 # subsi3
	l.jal   	__mulsf3 # call_value_internal	# delay slot filled
	l.sw    	8(r1),r11	 # SI store
.LVL32:
	l.jal   	__fixsfsi # call_value_internal	# delay slot filled
	l.ori   	r3,r11,0	 # movsf
.LVL33:
	l.div   	r24,r11,r24 # divsi3
	l.add   	r24,r24,r24 # addsi3
	l.ori   	r3,r26,0	 # movsf
	l.slli  	r4,r24,2 # ashlsi3
	l.add   	r24,r24,r4 # addsi3
	l.sub   	r11,r11,r24 # subsi3
	l.jal   	__fixsfsi # call_value_internal	# delay slot filled
	l.sw    	4(r1),r11	 # SI store
.LVL34:
	l.movhi  	r3,hi(.LC9) # movsi_high
	l.sw    	0(r1),r11	 # SI store
	l.jal   	printf # call_value_internal	# delay slot filled
	l.ori   	r3,r3,lo(.LC9) # movsi_lo_sum
.LVL35:
	.loc 1 282 0
	l.movhi  	r3,hi(.LC12) # movsi_high
	l.jal   	printf # call_value_internal	# delay slot filled
	l.ori   	r3,r3,lo(.LC12) # movsi_lo_sum
.LVL36:
	.loc 1 285 0
	l.lwz   	r5,0(r22)	 # SI load
.LVL37:
	l.ori   	r3,r14,0	 # move reg to reg
.LVL38:
.L8:
.LBB5:
	.loc 1 288 0 discriminator 3
#APP
# 288 "hmcmd.c" 1
	l.sfeqi r0,1
l.bf 1f
l.nop
l.nop
1:
l.nop

# 0 "" 2
#NO_APP
	l.addi  	r3,r3,-1 # addsi3
	.loc 1 286 0 discriminator 3
	l.sfnei	r3,0 # cmpsi_ne
	l.bf	.L8
	l.nop			# nop delay slot
.LBE5:
	.loc 1 298 0
	l.lwz   	r3,0(r22)	 # SI load
.LVL39:
	.loc 1 300 0
	l.addi  	r4,r0,100	 # move immediate I
	.loc 1 299 0
	l.sub   	r5,r3,r5 # subsi3
.LVL40:
	.loc 1 301 0
	l.movhi 	r26,hi(49938432)	 # move immediate M
.LVL41:
	.loc 1 300 0
	l.div   	r4,r5,r4 # divsi3
.LVL42:
	.loc 1 301 0
	l.ori   	r26,r26,61568 # iorsi3
	.loc 1 304 0
	l.movhi  	r3,hi(.LC13) # movsi_high
.LVL43:
	.loc 1 301 0
	l.mul   	r26,r4,r26 # mulsi3
.LVL44:
	.loc 1 302 0
	l.movhi 	r4,hi(-40042496)	 # move immediate M
	.loc 1 304 0
	l.sw    	0(r1),r5	 # SI store
	.loc 1 302 0
	l.ori   	r4,r4,42496 # iorsi3
	.loc 1 304 0
	l.ori   	r3,r3,lo(.LC13) # movsi_lo_sum
.LVL45:
	l.jal   	printf # call_value_internal	# delay slot filled
	l.add   	r26,r26,r4 # addsi3
.LVL46:
	.loc 1 305 0
	l.movhi  	r3,hi(.LC14) # movsi_high
	l.sw    	0(r1),r26	 # SI store
	l.ori   	r3,r3,lo(.LC14) # movsi_lo_sum
	l.jal   	printf # call_value_internal	# delay slot filled
	l.addi  	r24,r0,10	 # move immediate I
.LVL47:
	.loc 1 307 0
	l.movhi 	r3,hi(9961472)	 # move immediate M
	l.ori   	r14,r3,38528 # iorsi3
	l.jal   	__floatsisf # call_value_internal	# delay slot filled
	l.div   	r3,r26,r14 # divsi3
.LVL48:
	.loc 1 308 0
	l.lwz   	r4,0(r20)	 # movsf
	l.ori   	r3,r11,0	 # movsf
.LVL49:
	l.jal   	__mulsf3 # call_value_internal	# delay slot filled
	l.ori   	r26,r11,0	 # movsf
.LVL50:
	l.jal   	__fixsfsi # call_value_internal	# delay slot filled
	l.ori   	r3,r11,0	 # movsf
.LVL51:
	l.div   	r5,r11,r24 # divsi3
	l.add   	r5,r5,r5 # addsi3
	l.lwz   	r4,0(r18)	 # movsf
	l.slli  	r6,r5,2 # ashlsi3
	l.ori   	r3,r26,0	 # movsf
	l.add   	r5,r5,r6 # addsi3
	l.sub   	r11,r11,r5 # subsi3
	l.jal   	__mulsf3 # call_value_internal	# delay slot filled
	l.sw    	8(r1),r11	 # SI store
.LVL52:
	l.jal   	__fixsfsi # call_value_internal	# delay slot filled
	l.ori   	r3,r11,0	 # movsf
.LVL53:
	l.div   	r24,r11,r24 # divsi3
	l.add   	r24,r24,r24 # addsi3
	l.ori   	r3,r26,0	 # movsf
	l.slli  	r4,r24,2 # ashlsi3
	l.add   	r24,r24,r4 # addsi3
	l.sub   	r11,r11,r24 # subsi3
	l.jal   	__fixsfsi # call_value_internal	# delay slot filled
	l.sw    	4(r1),r11	 # SI store
.LVL54:
	l.movhi  	r3,hi(.LC9) # movsi_high
	l.sw    	0(r1),r11	 # SI store
	l.jal   	printf # call_value_internal	# delay slot filled
	l.ori   	r3,r3,lo(.LC9) # movsi_lo_sum
.LVL55:
	.loc 1 311 0
	l.movhi  	r3,hi(.LC15) # movsi_high
	l.jal   	printf # call_value_internal	# delay slot filled
	l.ori   	r3,r3,lo(.LC15) # movsi_lo_sum
.LVL56:
	.loc 1 314 0
	l.lwz   	r5,0(r22)	 # SI load
.LVL57:
	l.ori   	r3,r14,0	 # move reg to reg
.LVL58:
.L9:
.LBB6:
	.loc 1 317 0 discriminator 3
#APP
# 317 "hmcmd.c" 1
	1:
l.nop
l.nop
l.nop
l.bf 2f
l.sfeqi r0,0
l.bf 1b
2:
l.nop
l.nop

# 0 "" 2
#NO_APP
	l.addi  	r3,r3,-1 # addsi3
	.loc 1 315 0 discriminator 3
	l.sfnei	r3,0 # cmpsi_ne
	l.bf	.L9
	l.nop			# nop delay slot
.LBE6:
	.loc 1 331 0
	l.lwz   	r3,0(r22)	 # SI load
.LVL59:
	.loc 1 333 0
	l.addi  	r4,r0,100	 # move immediate I
	.loc 1 332 0
	l.sub   	r5,r3,r5 # subsi3
.LVL60:
	.loc 1 334 0
	l.movhi 	r26,hi(49938432)	 # move immediate M
.LVL61:
	.loc 1 333 0
	l.div   	r4,r5,r4 # divsi3
.LVL62:
	.loc 1 334 0
	l.ori   	r26,r26,61568 # iorsi3
	.loc 1 337 0
	l.movhi  	r3,hi(.LC16) # movsi_high
.LVL63:
	.loc 1 334 0
	l.mul   	r26,r4,r26 # mulsi3
.LVL64:
	.loc 1 335 0
	l.movhi 	r4,hi(-40042496)	 # move immediate M
	.loc 1 337 0
	l.sw    	0(r1),r5	 # SI store
	.loc 1 335 0
	l.ori   	r4,r4,42496 # iorsi3
	.loc 1 337 0
	l.ori   	r3,r3,lo(.LC16) # movsi_lo_sum
.LVL65:
	l.jal   	printf # call_value_internal	# delay slot filled
	l.add   	r26,r26,r4 # addsi3
.LVL66:
	.loc 1 338 0
	l.movhi  	r3,hi(.LC17) # movsi_high
	l.sw    	0(r1),r26	 # SI store
	l.ori   	r3,r3,lo(.LC17) # movsi_lo_sum
	l.jal   	printf # call_value_internal	# delay slot filled
	l.addi  	r24,r0,10	 # move immediate I
.LVL67:
	.loc 1 340 0
	l.movhi 	r3,hi(9961472)	 # move immediate M
	l.ori   	r14,r3,38528 # iorsi3
	l.jal   	__floatsisf # call_value_internal	# delay slot filled
	l.div   	r3,r26,r14 # divsi3
.LVL68:
	.loc 1 341 0
	l.lwz   	r4,0(r20)	 # movsf
	l.ori   	r3,r11,0	 # movsf
.LVL69:
	l.jal   	__mulsf3 # call_value_internal	# delay slot filled
	l.ori   	r26,r11,0	 # movsf
.LVL70:
	l.jal   	__fixsfsi # call_value_internal	# delay slot filled
	l.ori   	r3,r11,0	 # movsf
.LVL71:
	l.div   	r5,r11,r24 # divsi3
	l.add   	r5,r5,r5 # addsi3
	l.lwz   	r4,0(r18)	 # movsf
	l.slli  	r6,r5,2 # ashlsi3
	l.ori   	r3,r26,0	 # movsf
	l.add   	r5,r5,r6 # addsi3
	l.sub   	r11,r11,r5 # subsi3
	l.jal   	__mulsf3 # call_value_internal	# delay slot filled
	l.sw    	8(r1),r11	 # SI store
.LVL72:
	l.jal   	__fixsfsi # call_value_internal	# delay slot filled
	l.ori   	r3,r11,0	 # movsf
.LVL73:
	l.div   	r24,r11,r24 # divsi3
	l.add   	r24,r24,r24 # addsi3
	l.ori   	r3,r26,0	 # movsf
	l.slli  	r4,r24,2 # ashlsi3
	l.add   	r24,r24,r4 # addsi3
	l.sub   	r11,r11,r24 # subsi3
	l.jal   	__fixsfsi # call_value_internal	# delay slot filled
	l.sw    	4(r1),r11	 # SI store
.LVL74:
	l.movhi  	r3,hi(.LC18) # movsi_high
	l.sw    	0(r1),r11	 # SI store
	l.jal   	printf # call_value_internal	# delay slot filled
	l.ori   	r3,r3,lo(.LC18) # movsi_lo_sum
.LVL75:
	.loc 1 344 0
	l.movhi  	r3,hi(.LC19) # movsi_high
	l.jal   	printf # call_value_internal	# delay slot filled
	l.ori   	r3,r3,lo(.LC19) # movsi_lo_sum
.LVL76:
	.loc 1 347 0
	l.lwz   	r5,0(r22)	 # SI load
.LVL77:
	l.ori   	r3,r14,0	 # move reg to reg
.LVL78:
.L10:
.LBB7:
	.loc 1 350 0 discriminator 3
#APP
# 350 "hmcmd.c" 1
	1:
l.nop
l.nop
l.nop
l.sfeqi r0,1
l.bf 1b
l.nop
l.nop

# 0 "" 2
#NO_APP
	l.addi  	r3,r3,-1 # addsi3
	.loc 1 348 0 discriminator 3
	l.sfnei	r3,0 # cmpsi_ne
	l.bf	.L10
	l.nop			# nop delay slot
.LBE7:
	.loc 1 363 0
	l.lwz   	r3,0(r22)	 # SI load
.LVL79:
	.loc 1 365 0
	l.addi  	r4,r0,100	 # move immediate I
	.loc 1 364 0
	l.sub   	r5,r3,r5 # subsi3
.LVL80:
	.loc 1 366 0
	l.movhi 	r22,hi(49938432)	 # move immediate M
	.loc 1 365 0
	l.div   	r4,r5,r4 # divsi3
.LVL81:
	.loc 1 366 0
	l.ori   	r22,r22,61568 # iorsi3
	.loc 1 369 0
	l.movhi  	r3,hi(.LC20) # movsi_high
.LVL82:
	.loc 1 366 0
	l.mul   	r22,r4,r22 # mulsi3
.LVL83:
	.loc 1 367 0
	l.movhi 	r4,hi(-40042496)	 # move immediate M
	.loc 1 369 0
	l.sw    	0(r1),r5	 # SI store
	.loc 1 367 0
	l.ori   	r4,r4,42496 # iorsi3
	.loc 1 369 0
	l.ori   	r3,r3,lo(.LC20) # movsi_lo_sum
.LVL84:
	l.jal   	printf # call_value_internal	# delay slot filled
	l.add   	r22,r22,r4 # addsi3
.LVL85:
	.loc 1 370 0
	l.movhi  	r3,hi(.LC21) # movsi_high
	l.sw    	0(r1),r22	 # SI store
	l.ori   	r3,r3,lo(.LC21) # movsi_lo_sum
	l.jal   	printf # call_value_internal	# delay slot filled
	l.addi  	r14,r0,10	 # move immediate I
.LVL86:
	.loc 1 372 0
	l.movhi 	r3,hi(9961472)	 # move immediate M
	l.ori   	r3,r3,38528 # iorsi3
	l.jal   	__floatsisf # call_value_internal	# delay slot filled
	l.div   	r3,r22,r3 # divsi3
.LVL87:
	.loc 1 373 0
	l.lwz   	r4,0(r20)	 # movsf
	l.ori   	r3,r11,0	 # movsf
.LVL88:
	l.jal   	__mulsf3 # call_value_internal	# delay slot filled
	l.ori   	r22,r11,0	 # movsf
.LVL89:
	l.jal   	__fixsfsi # call_value_internal	# delay slot filled
	l.ori   	r3,r11,0	 # movsf
.LVL90:
	l.div   	r5,r11,r14 # divsi3
	l.add   	r5,r5,r5 # addsi3
	l.lwz   	r4,0(r18)	 # movsf
	l.slli  	r6,r5,2 # ashlsi3
	l.ori   	r3,r22,0	 # movsf
	l.add   	r5,r5,r6 # addsi3
	l.sub   	r11,r11,r5 # subsi3
	l.jal   	__mulsf3 # call_value_internal	# delay slot filled
	l.sw    	8(r1),r11	 # SI store
.LVL91:
	l.jal   	__fixsfsi # call_value_internal	# delay slot filled
	l.ori   	r3,r11,0	 # movsf
.LVL92:
	l.div   	r14,r11,r14 # divsi3
	l.add   	r14,r14,r14 # addsi3
	l.ori   	r3,r22,0	 # movsf
	l.slli  	r4,r14,2 # ashlsi3
	l.add   	r14,r14,r4 # addsi3
	l.sub   	r11,r11,r14 # subsi3
	l.jal   	__fixsfsi # call_value_internal	# delay slot filled
	l.sw    	4(r1),r11	 # SI store
.LVL93:
	l.movhi  	r3,hi(.LC22) # movsi_high
	l.sw    	0(r1),r11	 # SI store
	l.jal   	printf # call_value_internal	# delay slot filled
	l.ori   	r3,r3,lo(.LC22) # movsi_lo_sum
.LVL94:
	.loc 1 376 0
	l.ori	r1,r2,0	# deallocate frame
	l.lwz   	r9,-4(r1)	 # SI load
	l.lwz   	r2,-8(r1)	 # SI load
	l.lwz   	r14,-32(r1)	 # SI load
	l.lwz   	r18,-28(r1)	 # SI load
	l.lwz   	r20,-24(r1)	 # SI load
	l.lwz   	r22,-20(r1)	 # SI load
.LVL95:
	l.lwz   	r24,-16(r1)	 # SI load
	l.jr    	r9	# return_internal	# delay slot filled
	l.lwz   	r26,-12(r1)	 # SI load
	.cfi_endproc
.LFE3:
	.size	branch_measurement, .-branch_measurement
	.section	.rodata.str1.1
.LC23:
	.string	"Number of positive elements: %i\n"
	.section .text
	.align	4
.proc	do_count
	.global do_count
	.type	do_count, @function
do_count:
.LFB4:
	.loc 1 379 0
	.cfi_startproc
.LVL96:
	l.sw    	-8(r1),r2	 # SI store
	.cfi_offset 2, -8
	l.addi  	r2,r1,0 # addsi3
	.cfi_def_cfa_register 2
	l.sw    	-4(r1),r9	 # SI store
	l.addi  	r8,r2,-416 # addsi3
	l.sw    	-16(r1),r14	 # SI store
	l.sw    	-12(r1),r18	 # SI store
.LBB8:
	.loc 1 386 0
	l.addi  	r3,r0,0	 # move immediate I
.LBE8:
	.loc 1 379 0
	l.addi	r1,r1,-420	# allocate frame
	.cfi_offset 9, -4
	.cfi_offset 14, -16
	.cfi_offset 18, -12
	l.ori   	r4,r8,0	 # move reg to reg
.LBB9:
	.loc 1 389 0
	l.addi  	r5,r0,-1	 # move immediate I
.LVL97:
.L16:
	.loc 1 386 0 discriminator 2
	l.addi  	r3,r3,1 # addsi3
.LVL98:
	l.sw    	0(r4),r5	 # SI store
	l.sfnei	r3,100 # cmpsi_ne
	.loc 1 388 0 discriminator 2
	l.andi  	r5,r3,3 # andsi3
	.loc 1 386 0 discriminator 2
	l.bnf	.L22	# delay slot filled
	l.addi  	r4,r4,4 # addsi3
.L18:
	.loc 1 388 0
	l.sfnei	r5,0 # cmpsi_ne
	l.bf	.L16	# delay slot filled
	l.addi  	r5,r0,1	 # move immediate I
	.loc 1 389 0
	l.addi  	r5,r0,-1	 # move immediate I
	.loc 1 386 0
	l.addi  	r3,r3,1 # addsi3
.LVL99:
	l.sw    	0(r4),r5	 # SI store
	l.sfnei	r3,100 # cmpsi_ne
	.loc 1 388 0
	l.andi  	r5,r3,3 # andsi3
	.loc 1 386 0
	l.bf	.L18	# delay slot filled
	l.addi  	r4,r4,4 # addsi3
.L22:
.LBE9:
	.loc 1 394 0
	l.movhi  	r14,hi(timestamp) # movsi_high
	l.ori   	r14,r14,lo(timestamp) # movsi_lo_sum
	l.lwz   	r18,0(r14)	 # SI load
.LVL100:
	.loc 1 395 0
#APP
# 395 "hmcmd.c" 1
	l.nop
# 0 "" 2
	.loc 1 396 0
# 396 "hmcmd.c" 1
	l.nop
# 0 "" 2
.LVL101:
#NO_APP
	l.movhi 	r3,hi(65536)	 # move immediate M
.LVL102:
	l.ori   	r3,r3,34464 # iorsi3
.LVL103:
.L19:
.LBB10:
	.loc 1 400 0 discriminator 3
#APP
# 400 "hmcmd.c" 1
	l.addi r5,r0,0                     # set r5 to 0 - this is the loop counter
l.addi r4,r0,0                     # set result to 0
l.addi r6,r8,0                     # put start address of input in r6
0:                                 # start of loop
l.lwz r7,0(r6)                     # load next value to be checked
l.sfgtsi r7,0                      # set flag if >0
l.bnf 1f                           # if not positive, cont. loop without incrementing
l.addi r6,r6,4                     # increment position in memory (delay slot!)
l.addi r4,r4,1                     # increment number of counted positives
1:                                 # continue loop...
l.sfeqi r5, 100-1 # check if end of loop reached
l.bnf 0b                           # if not all iterations are done, do another loop
l.addi r5,r5,1                     # increment loop counter (delay slot!)

# 0 "" 2
.LVL104:
#NO_APP
	l.addi  	r3,r3,-1 # addsi3
	.loc 1 398 0 discriminator 3
	l.sfnei	r3,0 # cmpsi_ne
	l.bf	.L19
	l.nop			# nop delay slot
.LBE10:
	.loc 1 419 0
	l.movhi  	r3,hi(.LC23) # movsi_high
	l.sw    	0(r1),r4	 # SI store
	l.jal   	printf # call_value_internal	# delay slot filled
	l.ori   	r3,r3,lo(.LC23) # movsi_lo_sum
.LVL105:
	.loc 1 421 0
#APP
# 421 "hmcmd.c" 1
	l.nop
# 0 "" 2
	.loc 1 422 0
# 422 "hmcmd.c" 1
	l.nop
# 0 "" 2
	.loc 1 423 0
#NO_APP
	l.lwz   	r5,0(r14)	 # SI load
.LVL106:
	.loc 1 425 0
	l.addi  	r4,r0,100	 # move immediate I
	.loc 1 424 0
	l.sub   	r5,r5,r18 # subsi3
.LVL107:
	.loc 1 427 0
	l.movhi 	r14,hi(49938432)	 # move immediate M
	.loc 1 425 0
	l.div   	r4,r5,r4 # divsi3
.LVL108:
	.loc 1 427 0
	l.ori   	r14,r14,61568 # iorsi3
	.loc 1 432 0
	l.movhi  	r3,hi(.LC4) # movsi_high
	.loc 1 427 0
	l.mul   	r14,r4,r14 # mulsi3
.LVL109:
	.loc 1 432 0
	l.sw    	0(r1),r5	 # SI store
	l.jal   	printf # call_value_internal	# delay slot filled
	l.ori   	r3,r3,lo(.LC4) # movsi_lo_sum
.LVL110:
	.loc 1 433 0
	l.movhi 	r3,hi(-458752)	 # move immediate M
	l.ori   	r3,r3,58752 # iorsi3
	l.add   	r14,r14,r3 # addsi3
.LVL111:
	l.movhi  	r3,hi(.LC5) # movsi_high
	l.sw    	0(r1),r14	 # SI store
	l.jal   	printf # call_value_internal	# delay slot filled
	l.ori   	r3,r3,lo(.LC5) # movsi_lo_sum
.LVL112:
	.loc 1 434 0
	l.ori	r1,r2,0	# deallocate frame
	l.lwz   	r9,-4(r1)	 # SI load
	l.lwz   	r2,-8(r1)	 # SI load
	l.lwz   	r14,-16(r1)	 # SI load
.LVL113:
	l.jr    	r9	# return_internal	# delay slot filled
	l.lwz   	r18,-12(r1)	 # SI load
	.cfi_endproc
.LFE4:
	.size	do_count, .-do_count
	.align	4
.proc	do_count_cmov
	.global do_count_cmov
	.type	do_count_cmov, @function
do_count_cmov:
.LFB5:
	.loc 1 438 0
	.cfi_startproc
.LVL114:
	l.sw    	-8(r1),r2	 # SI store
	.cfi_offset 2, -8
	l.addi  	r2,r1,0 # addsi3
	.cfi_def_cfa_register 2
	l.sw    	-4(r1),r9	 # SI store
	l.addi  	r11,r2,-416 # addsi3
	l.sw    	-16(r1),r14	 # SI store
	l.sw    	-12(r1),r18	 # SI store
.LBB11:
	.loc 1 444 0
	l.addi  	r3,r0,0	 # move immediate I
.LBE11:
	.loc 1 438 0
	l.addi	r1,r1,-420	# allocate frame
	.cfi_offset 9, -4
	.cfi_offset 14, -16
	.cfi_offset 18, -12
	l.ori   	r4,r11,0	 # move reg to reg
.LBB12:
	.loc 1 447 0
	l.addi  	r5,r0,-1	 # move immediate I
.LVL115:
.L24:
	.loc 1 444 0 discriminator 2
	l.addi  	r3,r3,1 # addsi3
.LVL116:
	l.sw    	0(r4),r5	 # SI store
	l.sfnei	r3,100 # cmpsi_ne
	.loc 1 446 0 discriminator 2
	l.andi  	r5,r3,3 # andsi3
	.loc 1 444 0 discriminator 2
	l.bnf	.L30	# delay slot filled
	l.addi  	r4,r4,4 # addsi3
.L26:
	.loc 1 446 0
	l.sfnei	r5,0 # cmpsi_ne
	l.bf	.L24	# delay slot filled
	l.addi  	r5,r0,1	 # move immediate I
	.loc 1 447 0
	l.addi  	r5,r0,-1	 # move immediate I
	.loc 1 444 0
	l.addi  	r3,r3,1 # addsi3
.LVL117:
	l.sw    	0(r4),r5	 # SI store
	l.sfnei	r3,100 # cmpsi_ne
	.loc 1 446 0
	l.andi  	r5,r3,3 # andsi3
	.loc 1 444 0
	l.bf	.L26	# delay slot filled
	l.addi  	r4,r4,4 # addsi3
.L30:
.LBE12:
	.loc 1 452 0
	l.movhi  	r14,hi(timestamp) # movsi_high
	l.ori   	r14,r14,lo(timestamp) # movsi_lo_sum
	l.lwz   	r18,0(r14)	 # SI load
.LVL118:
	.loc 1 453 0
#APP
# 453 "hmcmd.c" 1
	l.nop
# 0 "" 2
	.loc 1 454 0
# 454 "hmcmd.c" 1
	l.nop
# 0 "" 2
.LVL119:
#NO_APP
	l.movhi 	r3,hi(65536)	 # move immediate M
.LVL120:
	l.ori   	r3,r3,34464 # iorsi3
.LVL121:
.L27:
.LBB13:
	.loc 1 458 0 discriminator 3
#APP
# 458 "hmcmd.c" 1
	l.addi r5,r0,0                     # set r5 to 0 - this is the loop counter
l.addi r4,r0,0                     # set result to 0
l.addi r6,r11,0                     # put start address of input in r6
l.addi r8,r0,1                     # r8 is 1
0:                                 # start of loop
l.lwz r7,0(r6)                     # load next value to be checked
l.sfgtsi r7,0                      # set flag if >0
l.cmov r9,r8,r0                    # r9 is 1 if r7 was >0, else 0
l.add r4,r4,r9                     # increment number of counted positives by 1 or 0
l.addi r6,r6,4                     # increment position in memory (delay slot!)
l.sfeqi r5, 100-1 # check if end of loop reached
l.bnf 0b                           # if not all iterations are done, do another loop
l.addi r5,r5,1                     # increment loop counter (delay slot!)

# 0 "" 2
.LVL122:
#NO_APP
	l.addi  	r3,r3,-1 # addsi3
	.loc 1 456 0 discriminator 3
	l.sfnei	r3,0 # cmpsi_ne
	l.bf	.L27
	l.nop			# nop delay slot
.LBE13:
	.loc 1 477 0
	l.movhi  	r3,hi(.LC23) # movsi_high
	l.sw    	0(r1),r4	 # SI store
	l.jal   	printf # call_value_internal	# delay slot filled
	l.ori   	r3,r3,lo(.LC23) # movsi_lo_sum
.LVL123:
	.loc 1 479 0
#APP
# 479 "hmcmd.c" 1
	l.nop
# 0 "" 2
	.loc 1 480 0
# 480 "hmcmd.c" 1
	l.nop
# 0 "" 2
	.loc 1 481 0
#NO_APP
	l.lwz   	r5,0(r14)	 # SI load
.LVL124:
	.loc 1 483 0
	l.addi  	r4,r0,100	 # move immediate I
	.loc 1 482 0
	l.sub   	r5,r5,r18 # subsi3
.LVL125:
	.loc 1 484 0
	l.movhi 	r14,hi(49938432)	 # move immediate M
	.loc 1 483 0
	l.div   	r4,r5,r4 # divsi3
.LVL126:
	.loc 1 484 0
	l.ori   	r14,r14,61568 # iorsi3
	.loc 1 487 0
	l.movhi  	r3,hi(.LC4) # movsi_high
	.loc 1 484 0
	l.mul   	r14,r4,r14 # mulsi3
.LVL127:
	.loc 1 487 0
	l.sw    	0(r1),r5	 # SI store
	l.jal   	printf # call_value_internal	# delay slot filled
	l.ori   	r3,r3,lo(.LC4) # movsi_lo_sum
.LVL128:
	.loc 1 488 0
	l.movhi 	r3,hi(-458752)	 # move immediate M
	l.ori   	r3,r3,58752 # iorsi3
	l.add   	r14,r14,r3 # addsi3
.LVL129:
	l.movhi  	r3,hi(.LC5) # movsi_high
	l.sw    	0(r1),r14	 # SI store
	l.jal   	printf # call_value_internal	# delay slot filled
	l.ori   	r3,r3,lo(.LC5) # movsi_lo_sum
.LVL130:
	.loc 1 489 0
	l.ori	r1,r2,0	# deallocate frame
	l.lwz   	r9,-4(r1)	 # SI load
	l.lwz   	r2,-8(r1)	 # SI load
	l.lwz   	r14,-16(r1)	 # SI load
.LVL131:
	l.jr    	r9	# return_internal	# delay slot filled
	l.lwz   	r18,-12(r1)	 # SI load
	.cfi_endproc
.LFE5:
	.size	do_count_cmov, .-do_count_cmov
	.align	4
.proc	do_count_unrolled
	.global do_count_unrolled
	.type	do_count_unrolled, @function
do_count_unrolled:
.LFB6:
	.loc 1 492 0
	.cfi_startproc
.LVL132:
	l.sw    	-8(r1),r2	 # SI store
	.cfi_offset 2, -8
	l.addi  	r2,r1,0 # addsi3
	.cfi_def_cfa_register 2
	l.sw    	-4(r1),r9	 # SI store
	l.addi  	r11,r2,-416 # addsi3
	l.sw    	-16(r1),r14	 # SI store
	l.sw    	-12(r1),r18	 # SI store
.LBB14:
	.loc 1 498 0
	l.addi  	r3,r0,0	 # move immediate I
.LBE14:
	.loc 1 492 0
	l.addi	r1,r1,-420	# allocate frame
	.cfi_offset 9, -4
	.cfi_offset 14, -16
	.cfi_offset 18, -12
	l.ori   	r4,r11,0	 # move reg to reg
.LBB15:
	.loc 1 501 0
	l.addi  	r5,r0,-1	 # move immediate I
.LVL133:
.L32:
	.loc 1 498 0 discriminator 2
	l.addi  	r3,r3,1 # addsi3
.LVL134:
	l.sw    	0(r4),r5	 # SI store
	l.sfnei	r3,100 # cmpsi_ne
	.loc 1 500 0 discriminator 2
	l.andi  	r5,r3,3 # andsi3
	.loc 1 498 0 discriminator 2
	l.bnf	.L38	# delay slot filled
	l.addi  	r4,r4,4 # addsi3
.L34:
	.loc 1 500 0
	l.sfnei	r5,0 # cmpsi_ne
	l.bf	.L32	# delay slot filled
	l.addi  	r5,r0,1	 # move immediate I
	.loc 1 501 0
	l.addi  	r5,r0,-1	 # move immediate I
	.loc 1 498 0
	l.addi  	r3,r3,1 # addsi3
.LVL135:
	l.sw    	0(r4),r5	 # SI store
	l.sfnei	r3,100 # cmpsi_ne
	.loc 1 500 0
	l.andi  	r5,r3,3 # andsi3
	.loc 1 498 0
	l.bf	.L34	# delay slot filled
	l.addi  	r4,r4,4 # addsi3
.L38:
.LBE15:
	.loc 1 506 0
	l.movhi  	r14,hi(timestamp) # movsi_high
	l.ori   	r14,r14,lo(timestamp) # movsi_lo_sum
	l.lwz   	r18,0(r14)	 # SI load
.LVL136:
	.loc 1 507 0
#APP
# 507 "hmcmd.c" 1
	l.nop
# 0 "" 2
	.loc 1 508 0
# 508 "hmcmd.c" 1
	l.nop
# 0 "" 2
.LVL137:
#NO_APP
	l.movhi 	r3,hi(65536)	 # move immediate M
.LVL138:
	l.ori   	r3,r3,34464 # iorsi3
.LVL139:
.L35:
.LBB16:
	.loc 1 512 0 discriminator 3
#APP
# 512 "hmcmd.c" 1
	l.addi r5,r0,0                     # set r5 to 0 - this is the loop counter
l.addi r4,r0,0                     # set result to 0
l.addi r6,r11,0                     # put start address of input in r6
l.addi r8,r0,1                     # r8 is 1
0:                                 # start of loop
l.lwz r7,0(r6)                     # load next value to be checked
l.sfgtsi r7,0                      # set flag if >0
l.cmov r9,r8,r0                    # r9 is 1 if r7 was >0, else 0
l.add r4,r4,r9                     # increment number of counted positives by 1 or 0
l.lwz r7,4(r6)                     # load next value to be checked
l.sfgtsi r7,0                      # set flag if >0
l.cmov r9,r8,r0                    # r9 is 1 if r7 was >0, else 0
l.add r4,r4,r9                     # increment number of counted positives by 1 or 0
l.lwz r7,8(r6)                     # load next value to be checked
l.sfgtsi r7,0                      # set flag if >0
l.cmov r9,r8,r0                    # r9 is 1 if r7 was >0, else 0
l.add r4,r4,r9                     # increment number of counted positives by 1 or 0
l.lwz r7,12(r6)                     # load next value to be checked
l.sfgtsi r7,0                      # set flag if >0
l.cmov r9,r8,r0                    # r9 is 1 if r7 was >0, else 0
l.add r4,r4,r9                     # increment number of counted positives by 1 or 0
l.addi r6,r6,16                     # increment position in memory (delay slot!)
l.sfeqi r5, 100-4 # check if end of loop reached
l.bnf 0b                           # if not all iterations are done, do another loop
l.addi r5,r5,4                     # increment loop counter (delay slot!)

# 0 "" 2
.LVL140:
#NO_APP
	l.addi  	r3,r3,-1 # addsi3
	.loc 1 510 0 discriminator 3
	l.sfnei	r3,0 # cmpsi_ne
	l.bf	.L35
	l.nop			# nop delay slot
.LBE16:
	.loc 1 548 0
	l.movhi  	r3,hi(.LC23) # movsi_high
	l.sw    	0(r1),r4	 # SI store
	l.jal   	printf # call_value_internal	# delay slot filled
	l.ori   	r3,r3,lo(.LC23) # movsi_lo_sum
.LVL141:
	.loc 1 550 0
#APP
# 550 "hmcmd.c" 1
	l.nop
# 0 "" 2
	.loc 1 551 0
# 551 "hmcmd.c" 1
	l.nop
# 0 "" 2
	.loc 1 552 0
#NO_APP
	l.lwz   	r5,0(r14)	 # SI load
.LVL142:
	.loc 1 554 0
	l.addi  	r4,r0,100	 # move immediate I
	.loc 1 553 0
	l.sub   	r5,r5,r18 # subsi3
.LVL143:
	.loc 1 556 0
	l.movhi 	r14,hi(49938432)	 # move immediate M
	.loc 1 554 0
	l.div   	r4,r5,r4 # divsi3
.LVL144:
	.loc 1 556 0
	l.ori   	r14,r14,61568 # iorsi3
	.loc 1 561 0
	l.movhi  	r3,hi(.LC4) # movsi_high
	.loc 1 556 0
	l.mul   	r14,r4,r14 # mulsi3
.LVL145:
	.loc 1 561 0
	l.sw    	0(r1),r5	 # SI store
	l.jal   	printf # call_value_internal	# delay slot filled
	l.ori   	r3,r3,lo(.LC4) # movsi_lo_sum
.LVL146:
	.loc 1 562 0
	l.movhi 	r3,hi(-458752)	 # move immediate M
	l.ori   	r3,r3,58752 # iorsi3
	l.add   	r14,r14,r3 # addsi3
.LVL147:
	l.movhi  	r3,hi(.LC5) # movsi_high
	l.sw    	0(r1),r14	 # SI store
	l.jal   	printf # call_value_internal	# delay slot filled
	l.ori   	r3,r3,lo(.LC5) # movsi_lo_sum
.LVL148:
	.loc 1 563 0
	l.ori	r1,r2,0	# deallocate frame
	l.lwz   	r9,-4(r1)	 # SI load
	l.lwz   	r2,-8(r1)	 # SI load
	l.lwz   	r14,-16(r1)	 # SI load
.LVL149:
	l.jr    	r9	# return_internal	# delay slot filled
	l.lwz   	r18,-12(r1)	 # SI load
	.cfi_endproc
.LFE6:
	.size	do_count_unrolled, .-do_count_unrolled
	.section	.rodata.str1.1
.LC24:
	.string	"WITHOUT HAZARD\n"
.LC25:
	.string	"CYCLES:   %d\n\n"
.LC26:
	.string	"WITH HAZARD\n"
	.section .text
	.align	4
.proc	rawhaz
	.global rawhaz
	.type	rawhaz, @function
rawhaz:
.LFB7:
	.loc 1 566 0
	.cfi_startproc
.LVL150:
	l.sw    	-8(r1),r2	 # SI store
	l.sw    	-16(r1),r18	 # SI store
	.cfi_offset 2, -8
	.cfi_offset 18, -16
	l.addi  	r2,r1,0 # addsi3
	.cfi_def_cfa_register 2
	.loc 1 569 0
	l.movhi  	r18,hi(timestamp) # movsi_high
	.loc 1 566 0
	l.sw    	-12(r1),r20	 # SI store
	l.sw    	-4(r1),r9	 # SI store
	l.sw    	-20(r1),r14	 # SI store
	.loc 1 569 0
	l.ori   	r18,r18,lo(timestamp) # movsi_lo_sum
	.loc 1 566 0
	l.addi	r1,r1,-24	# allocate frame
	.cfi_offset 20, -12
	.cfi_offset 9, -4
	.cfi_offset 14, -20
	.loc 1 569 0
	l.lwz   	r20,0(r18)	 # SI load
.LVL151:
	.loc 1 570 0
#APP
# 570 "hmcmd.c" 1
	l.nop
# 0 "" 2
	.loc 1 571 0
# 571 "hmcmd.c" 1
	l.nop
# 0 "" 2
.LVL152:
#NO_APP
	l.movhi 	r3,hi(9961472)	 # move immediate M
	l.ori   	r3,r3,38528 # iorsi3
.LVL153:
.L40:
.LBB17:
	.loc 1 574 0 discriminator 3
#APP
# 574 "hmcmd.c" 1
	l.add r9, r7, r8
# 0 "" 2
	.loc 1 575 0 discriminator 3
# 575 "hmcmd.c" 1
	l.add r10, r7, r8
# 0 "" 2
#NO_APP
	l.addi  	r3,r3,-1 # addsi3
	.loc 1 572 0 discriminator 3
	l.sfnei	r3,0 # cmpsi_ne
	l.bf	.L40
	l.nop			# nop delay slot
.LBE17:
	.loc 1 577 0
#APP
# 577 "hmcmd.c" 1
	l.nop
# 0 "" 2
	.loc 1 578 0
# 578 "hmcmd.c" 1
	l.nop
# 0 "" 2
	.loc 1 579 0
#NO_APP
	l.lwz   	r3,0(r18)	 # SI load
.LVL154:
	.loc 1 581 0
	l.addi  	r4,r0,100	 # move immediate I
	.loc 1 580 0
	l.sub   	r20,r3,r20 # subsi3
.LVL155:
	.loc 1 582 0
	l.movhi 	r14,hi(49938432)	 # move immediate M
	.loc 1 581 0
	l.div   	r4,r20,r4 # divsi3
.LVL156:
	.loc 1 582 0
	l.ori   	r14,r14,61568 # iorsi3
	.loc 1 585 0
	l.movhi  	r3,hi(.LC24) # movsi_high
.LVL157:
	.loc 1 582 0
	l.mul   	r14,r4,r14 # mulsi3
.LVL158:
	.loc 1 585 0
	l.jal   	printf # call_value_internal	# delay slot filled
	l.ori   	r3,r3,lo(.LC24) # movsi_lo_sum
.LVL159:
	.loc 1 586 0
	l.movhi  	r3,hi(.LC4) # movsi_high
	l.sw    	0(r1),r20	 # SI store
	l.jal   	printf # call_value_internal	# delay slot filled
	l.ori   	r3,r3,lo(.LC4) # movsi_lo_sum
.LVL160:
	.loc 1 587 0
	l.movhi 	r3,hi(-40042496)	 # move immediate M
	l.ori   	r3,r3,42496 # iorsi3
	l.add   	r14,r14,r3 # addsi3
.LVL161:
	l.movhi  	r3,hi(.LC25) # movsi_high
	l.sw    	0(r1),r14	 # SI store
	l.jal   	printf # call_value_internal	# delay slot filled
	l.ori   	r3,r3,lo(.LC25) # movsi_lo_sum
.LVL162:
	.loc 1 593 0
	l.lwz   	r4,0(r18)	 # SI load
.LVL163:
	.loc 1 594 0
#APP
# 594 "hmcmd.c" 1
	l.nop
# 0 "" 2
	.loc 1 595 0
# 595 "hmcmd.c" 1
	l.nop
# 0 "" 2
.LVL164:
#NO_APP
	l.movhi 	r3,hi(9961472)	 # move immediate M
	l.ori   	r3,r3,38528 # iorsi3
.LVL165:
.L41:
.LBB18:
	.loc 1 598 0 discriminator 3
#APP
# 598 "hmcmd.c" 1
	l.add r9, r7, r8
# 0 "" 2
	.loc 1 599 0 discriminator 3
# 599 "hmcmd.c" 1
	l.add r10, r9, r8
# 0 "" 2
#NO_APP
	l.addi  	r3,r3,-1 # addsi3
	.loc 1 596 0 discriminator 3
	l.sfnei	r3,0 # cmpsi_ne
	l.bf	.L41
	l.nop			# nop delay slot
.LBE18:
	.loc 1 601 0
#APP
# 601 "hmcmd.c" 1
	l.nop
# 0 "" 2
	.loc 1 602 0
# 602 "hmcmd.c" 1
	l.nop
# 0 "" 2
	.loc 1 603 0
#NO_APP
	l.lwz   	r3,0(r18)	 # SI load
.LVL166:
	.loc 1 606 0
	l.movhi 	r14,hi(49938432)	 # move immediate M
.LVL167:
	.loc 1 604 0
	l.sub   	r18,r3,r4 # subsi3
.LVL168:
	.loc 1 605 0
	l.addi  	r4,r0,100	 # move immediate I
.LVL169:
	.loc 1 606 0
	l.ori   	r14,r14,61568 # iorsi3
.LVL170:
	.loc 1 605 0
	l.div   	r4,r18,r4 # divsi3
.LVL171:
	.loc 1 606 0
	l.mul   	r14,r4,r14 # mulsi3
.LVL172:
	.loc 1 609 0
	l.movhi  	r3,hi(.LC26) # movsi_high
.LVL173:
	l.jal   	printf # call_value_internal	# delay slot filled
	l.ori   	r3,r3,lo(.LC26) # movsi_lo_sum
.LVL174:
	.loc 1 610 0
	l.movhi  	r3,hi(.LC4) # movsi_high
	l.sw    	0(r1),r18	 # SI store
	l.jal   	printf # call_value_internal	# delay slot filled
	l.ori   	r3,r3,lo(.LC4) # movsi_lo_sum
.LVL175:
	.loc 1 611 0
	l.movhi 	r3,hi(-40042496)	 # move immediate M
	l.ori   	r3,r3,42496 # iorsi3
	l.add   	r14,r14,r3 # addsi3
.LVL176:
	l.movhi  	r3,hi(.LC25) # movsi_high
	l.sw    	0(r1),r14	 # SI store
	l.jal   	printf # call_value_internal	# delay slot filled
	l.ori   	r3,r3,lo(.LC25) # movsi_lo_sum
.LVL177:
	.loc 1 747 0
	l.ori	r1,r2,0	# deallocate frame
	l.lwz   	r9,-4(r1)	 # SI load
	l.lwz   	r2,-8(r1)	 # SI load
	l.lwz   	r14,-20(r1)	 # SI load
.LVL178:
	l.lwz   	r18,-16(r1)	 # SI load
.LVL179:
	l.jr    	r9	# return_internal	# delay slot filled
	l.lwz   	r20,-12(r1)	 # SI load
	.cfi_endproc
.LFE7:
	.size	rawhaz, .-rawhaz
	.section	.rodata.str1.1
.LC27:
	.string	"usage:  [no usage information available, yet] \n"
.LC28:
	.string	"hello"
.LC29:
	.string	"Hello from University of Applied Sciences, Munich, Germany! \n"
.LC30:
	.string	"mips"
.LC31:
	.string	"branch"
.LC32:
	.string	"count"
.LC33:
	.string	"cmov"
.LC34:
	.string	"unroll"
.LC35:
	.string	"raw"
.LC36:
	.string	"cpi_nop"
.LC37:
	.string	"CPI NOP TEST with %d iterations\n"
.LC38:
	.string	"TICKS_PER_SECOND %d // IN_CLK %d\n"
.LC39:
	.string	">start @ %d\n"
.LC40:
	.string	">stop @ %d\n"
.LC41:
	.string	"THAT TOOK %d CYCLES !!!\n"
.LC44:
	.string	"cpi_add"
.LC45:
	.string	"CPI ADD TEST with %d iterations\n"
.LC46:
	.string	"cpi_div"
.LC47:
	.string	"CPI DIV TEST with %d iterations\n"
.LC48:
	.string	"cpi_lbz"
.LC49:
	.string	"CPI LBZ TEST with %d iterations\n"
.LC50:
	.string	"Invalid number of arguments!\n"
	.section	.rodata.cst4
	.align	4
.LC42:
	.long	1120403456
	.align	4
.LC43:
	.long	1092616192
	.section .text
	.align	4
.proc	hmcmd_cmd
	.global hmcmd_cmd
	.type	hmcmd_cmd, @function
hmcmd_cmd:
.LFB0:
	.loc 1 20 0
	.cfi_startproc
.LVL180:
	l.sw    	-8(r1),r2	 # SI store
	.cfi_offset 2, -8
	l.addi  	r2,r1,0 # addsi3
	.cfi_def_cfa_register 2
	l.sw    	-20(r1),r14	 # SI store
	l.sw    	-16(r1),r18	 # SI store
	l.sw    	-4(r1),r9	 # SI store
	l.sw    	-12(r1),r20	 # SI store
	.loc 1 21 0
	l.sfnei	r3,0 # cmpsi_ne
	.loc 1 20 0
	l.addi	r1,r1,-136	# allocate frame
	.cfi_offset 14, -20
	.cfi_offset 18, -16
	.cfi_offset 9, -4
	.cfi_offset 20, -12
	.loc 1 20 0
	l.ori   	r14,r3,0	 # move reg to reg
	.loc 1 21 0
	l.bnf	.L80	# delay slot filled
	l.ori   	r18,r4,0	 # move reg to reg
	.loc 1 23 0
	l.sfnei	r3,1 # cmpsi_ne
	l.bnf	.L81	# delay slot filled
	l.sfnei	r3,2 # cmpsi_ne
	.loc 1 166 0
	l.bnf	.L82	# delay slot filled
	l.movhi  	r3,hi(.LC50) # movsi_high
.LVL181:
	.loc 1 209 0
	l.jal   	printf # call_value_internal	# delay slot filled
	l.ori   	r3,r3,lo(.LC50) # movsi_lo_sum
.LVL182:
.L70:
	.loc 1 213 0
	l.ori	r1,r2,0	# deallocate frame
.L90:
	l.addi  	r11,r0,0	 # move immediate I
	l.lwz   	r9,-4(r1)	 # SI load
	l.lwz   	r2,-8(r1)	 # SI load
	l.lwz   	r14,-20(r1)	 # SI load
	l.lwz   	r18,-16(r1)	 # SI load
	l.jr    	r9	# return_internal	# delay slot filled
	l.lwz   	r20,-12(r1)	 # SI load
.LVL183:
.L80:
	.loc 1 22 0
	l.movhi  	r3,hi(.LC27) # movsi_high
.LVL184:
	l.jal   	printf # call_value_internal	# delay slot filled
	l.ori   	r3,r3,lo(.LC27) # movsi_lo_sum
.LVL185:
	.loc 1 213 0
	l.ori	r1,r2,0	# deallocate frame
	l.addi  	r11,r0,0	 # move immediate I
	l.lwz   	r9,-4(r1)	 # SI load
	l.lwz   	r2,-8(r1)	 # SI load
	l.lwz   	r14,-20(r1)	 # SI load
.LVL186:
	l.lwz   	r18,-16(r1)	 # SI load
.LVL187:
	l.jr    	r9	# return_internal	# delay slot filled
	l.lwz   	r20,-12(r1)	 # SI load
.LVL188:
.L82:
	.loc 1 167 0
	l.movhi  	r4,hi(.LC36) # movsi_high
.LVL189:
	l.lwz   	r3,0(r18)	 # SI load
.LVL190:
	l.jal   	strcmp # call_value_internal	# delay slot filled
	l.ori   	r4,r4,lo(.LC36) # movsi_lo_sum
.LVL191:
	l.sfnei	r11,0 # cmpsi_ne
.LVL192:
	l.bf	.L70	# delay slot filled
	l.ori   	r14,r11,0	 # move reg to reg
.LBB27:
	.loc 1 170 0
	l.lwz   	r4,4(r18)	 # SI load
	l.jal   	strcpy # call_value_internal	# delay slot filled
	l.addi  	r3,r2,-120 # addsi3
.LVL193:
	.loc 1 171 0
	l.jal   	strlen # call_value_internal	# delay slot filled
	l.lwz   	r3,4(r18)	 # SI load
.LVL194:
	.loc 1 174 0
	l.sflesi	r11,0 # cmpsi_le
	l.bf	.L66	# delay slot filled
	l.movhi  	r3,hi(.LC37) # movsi_high
	l.addi  	r3,r2,-120 # addsi3
	l.add   	r6,r3,r11 # addsi3
.LVL195:
.L67:
	.loc 1 175 0 discriminator 3
	l.add   	r14,r14,r14 # addsi3
.LVL196:
	l.lbs   	r5,0(r3)	 # extendqisi2_no_sext_mem
	l.slli  	r4,r14,2 # ashlsi3
	l.addi  	r3,r3,1 # addsi3
.LVL197:
	l.addi  	r5,r5,-48 # addsi3
	l.add   	r14,r14,r4 # addsi3
	.loc 1 174 0 discriminator 3
	l.sfne 	r3,r6 # cmpsi_ne
.LVL198:
	l.bf	.L67	# delay slot filled
	l.add   	r14,r5,r14 # addsi3
.LVL199:
	.loc 1 183 0
	l.movhi  	r3,hi(.LC37) # movsi_high
	l.sw    	0(r1),r14	 # SI store
	l.ori   	r3,r3,lo(.LC37) # movsi_lo_sum
.LVL200:
	l.jal   	printf # call_value_internal	# delay slot filled
	l.movhi  	r18,hi(timestamp) # movsi_high
.LVL201:
	.loc 1 184 0
	l.movhi 	r4,hi(49938432)	 # move immediate M
	l.movhi  	r3,hi(.LC38) # movsi_high
	l.ori   	r4,r4,61568 # iorsi3
	l.ori   	r3,r3,lo(.LC38) # movsi_lo_sum
	l.sw    	4(r1),r4	 # SI store
	l.addi  	r4,r0,100	 # move immediate I
	.loc 1 186 0
	l.ori   	r18,r18,lo(timestamp) # movsi_lo_sum
	.loc 1 184 0
	l.jal   	printf # call_value_internal	# delay slot filled
	l.sw    	0(r1),r4	 # SI store
.LVL202:
	.loc 1 187 0
	l.movhi  	r3,hi(.LC39) # movsi_high
	.loc 1 186 0
	l.lwz   	r20,0(r18)	 # SI load
.LVL203:
	.loc 1 187 0
	l.ori   	r3,r3,lo(.LC39) # movsi_lo_sum
	l.jal   	printf # call_value_internal	# delay slot filled
	l.sw    	0(r1),r20	 # SI store
.LVL204:
	.loc 1 188 0
	l.sflesi	r14,0 # cmpsi_le
	l.bf	.L68
	l.nop			# nop delay slot
	.loc 1 188 0 is_stmt 0 discriminator 3
	l.addi  	r3,r0,0	 # move immediate I
.LVL205:
.L69:
	.loc 1 190 0 is_stmt 1 discriminator 3
#APP
# 190 "hmcmd.c" 1
	l.nop
# 0 "" 2
	.loc 1 188 0 discriminator 3
#NO_APP
	l.addi  	r3,r3,1 # addsi3
.LVL206:
	l.sfne 	r14,r3 # cmpsi_ne
	l.bf	.L69
	l.nop			# nop delay slot
.LVL207:
.L68:
	.loc 1 192 0
	l.lwz   	r4,0(r18)	 # SI load
.LVL208:
	.loc 1 193 0
	l.movhi  	r3,hi(.LC40) # movsi_high
	l.sw    	0(r1),r4	 # SI store
	l.ori   	r3,r3,lo(.LC40) # movsi_lo_sum
	l.jal   	printf # call_value_internal	# delay slot filled
	l.sub   	r18,r4,r20 # subsi3
.LVL209:
	.loc 1 196 0
	l.movhi  	r3,hi(.LC4) # movsi_high
	l.sw    	0(r1),r18	 # SI store
	l.ori   	r3,r3,lo(.LC4) # movsi_lo_sum
.LVL210:
	l.jal   	printf # call_value_internal	# delay slot filled
	l.addi  	r20,r0,10	 # move immediate I
.LVL211:
	.loc 1 198 0
	l.addi  	r3,r0,100	 # move immediate I
	.loc 1 199 0
	l.movhi 	r4,hi(49938432)	 # move immediate M
	.loc 1 198 0
	l.div   	r18,r18,r3 # divsi3
.LVL212:
	.loc 1 199 0
	l.ori   	r4,r4,61568 # iorsi3
	.loc 1 202 0
	l.movhi  	r3,hi(.LC41) # movsi_high
	.loc 1 199 0
	l.mul   	r18,r18,r4 # mulsi3
.LVL213:
	.loc 1 202 0
	l.ori   	r3,r3,lo(.LC41) # movsi_lo_sum
	l.jal   	printf # call_value_internal	# delay slot filled
	l.sw    	0(r1),r18	 # SI store
.LVL214:
	.loc 1 203 0
	l.jal   	__floatsisf # call_value_internal	# delay slot filled
	l.div   	r3,r18,r14 # divsi3
.LVL215:
	.loc 1 204 0
	l.movhi  	r4,hi(.LC42) # movsi_high
	l.ori   	r3,r11,0	 # movsf
	l.ori   	r4,r4,lo(.LC42) # movsi_lo_sum
	.loc 1 203 0
	l.ori   	r14,r11,0	 # movsf
.LVL216:
	.loc 1 204 0
	l.jal   	__mulsf3 # call_value_internal	# delay slot filled
	l.lwz   	r4,0(r4)	 # movsf
.LVL217:
	l.jal   	__fixsfsi # call_value_internal	# delay slot filled
	l.ori   	r3,r11,0	 # movsf
.LVL218:
	l.div   	r5,r11,r20 # divsi3
	l.add   	r5,r5,r5 # addsi3
	l.movhi  	r3,hi(.LC43) # movsi_high
	l.slli  	r6,r5,2 # ashlsi3
	l.ori   	r3,r3,lo(.LC43) # movsi_lo_sum
	l.add   	r5,r5,r6 # addsi3
	l.lwz   	r4,0(r3)	 # movsf
	l.sub   	r11,r11,r5 # subsi3
	l.ori   	r3,r14,0	 # movsf
	l.jal   	__mulsf3 # call_value_internal	# delay slot filled
	l.sw    	8(r1),r11	 # SI store
.LVL219:
	l.jal   	__fixsfsi # call_value_internal	# delay slot filled
	l.ori   	r3,r11,0	 # movsf
.LVL220:
	l.div   	r20,r11,r20 # divsi3
	l.add   	r20,r20,r20 # addsi3
	l.ori   	r3,r14,0	 # movsf
	l.slli  	r4,r20,2 # ashlsi3
	l.add   	r20,r20,r4 # addsi3
	l.sub   	r11,r11,r20 # subsi3
.LVL221:
.L78:
	l.jal   	__fixsfsi # call_value_internal	# delay slot filled
	l.sw    	4(r1),r11	 # SI store
.LVL222:
	l.movhi  	r3,hi(.LC22) # movsi_high
	l.sw    	0(r1),r11	 # SI store
	l.jal   	printf # call_value_internal	# delay slot filled
	l.ori   	r3,r3,lo(.LC22) # movsi_lo_sum
.LVL223:
.LBE27:
	.loc 1 213 0
	l.j     	.L90 # jump_internal	# delay slot filled
	l.ori	r1,r2,0	# deallocate frame
.LVL224:
.L81:
	.loc 1 24 0
	l.movhi  	r4,hi(.LC28) # movsi_high
.LVL225:
	l.lwz   	r3,0(r18)	 # SI load
.LVL226:
	l.jal   	strcmp # call_value_internal	# delay slot filled
	l.ori   	r4,r4,lo(.LC28) # movsi_lo_sum
.LVL227:
	l.sfnei	r11,0 # cmpsi_ne
	l.bnf	.L83	# delay slot filled
	l.movhi  	r4,hi(.LC30) # movsi_high
	.loc 1 26 0
	l.lwz   	r3,0(r18)	 # SI load
	l.jal   	strcmp # call_value_internal	# delay slot filled
	l.ori   	r4,r4,lo(.LC30) # movsi_lo_sum
.LVL228:
	l.sfnei	r11,0 # cmpsi_ne
	l.bnf	.L84
	l.nop			# nop delay slot
	.loc 1 28 0
	l.movhi  	r4,hi(.LC31) # movsi_high
	l.lwz   	r3,0(r18)	 # SI load
	l.jal   	strcmp # call_value_internal	# delay slot filled
	l.ori   	r4,r4,lo(.LC31) # movsi_lo_sum
.LVL229:
	l.sfnei	r11,0 # cmpsi_ne
	l.bnf	.L85	# delay slot filled
	l.movhi  	r4,hi(.LC32) # movsi_high
	.loc 1 30 0
	l.lwz   	r3,0(r18)	 # SI load
	l.jal   	strcmp # call_value_internal	# delay slot filled
	l.ori   	r4,r4,lo(.LC32) # movsi_lo_sum
.LVL230:
	l.sfnei	r11,0 # cmpsi_ne
	l.bnf	.L86	# delay slot filled
	l.movhi  	r4,hi(.LC33) # movsi_high
	.loc 1 32 0
	l.lwz   	r3,0(r18)	 # SI load
	l.jal   	strcmp # call_value_internal	# delay slot filled
	l.ori   	r4,r4,lo(.LC33) # movsi_lo_sum
.LVL231:
	l.sfnei	r11,0 # cmpsi_ne
	l.bnf	.L87	# delay slot filled
	l.movhi  	r4,hi(.LC34) # movsi_high
	.loc 1 34 0
	l.lwz   	r3,0(r18)	 # SI load
	l.jal   	strcmp # call_value_internal	# delay slot filled
	l.ori   	r4,r4,lo(.LC34) # movsi_lo_sum
.LVL232:
	l.sfnei	r11,0 # cmpsi_ne
	l.bnf	.L88	# delay slot filled
	l.movhi  	r4,hi(.LC35) # movsi_high
	.loc 1 36 0
	l.lwz   	r3,0(r18)	 # SI load
	l.jal   	strcmp # call_value_internal	# delay slot filled
	l.ori   	r4,r4,lo(.LC35) # movsi_lo_sum
.LVL233:
	l.sfnei	r11,0 # cmpsi_ne
	l.bnf	.L89	# delay slot filled
	l.movhi  	r4,hi(.LC36) # movsi_high
	.loc 1 38 0
	l.lwz   	r3,0(r18)	 # SI load
	l.jal   	strcmp # call_value_internal	# delay slot filled
	l.ori   	r4,r4,lo(.LC36) # movsi_lo_sum
.LVL234:
	l.sfnei	r11,0 # cmpsi_ne
	l.bf	.L56	# delay slot filled
	l.movhi  	r4,hi(.LC44) # movsi_high
.LVL235:
.LBB28:
	.loc 1 45 0
	l.movhi 	r14,hi(9961472)	 # move immediate M
.LVL236:
	l.movhi  	r3,hi(.LC37) # movsi_high
	l.ori   	r14,r14,38528 # iorsi3
	l.ori   	r3,r3,lo(.LC37) # movsi_lo_sum
	l.sw    	0(r1),r14	 # SI store
.LVL237:
	l.jal   	printf # call_value_internal	# delay slot filled
	l.movhi  	r18,hi(timestamp) # movsi_high
.LVL238:
	.loc 1 46 0
	l.movhi 	r4,hi(49938432)	 # move immediate M
	l.movhi  	r3,hi(.LC38) # movsi_high
	l.ori   	r4,r4,61568 # iorsi3
	l.ori   	r3,r3,lo(.LC38) # movsi_lo_sum
	l.sw    	4(r1),r4	 # SI store
	l.addi  	r4,r0,100	 # move immediate I
	.loc 1 48 0
	l.ori   	r18,r18,lo(timestamp) # movsi_lo_sum
	.loc 1 46 0
	l.jal   	printf # call_value_internal	# delay slot filled
	l.sw    	0(r1),r4	 # SI store
.LVL239:
	.loc 1 49 0
	l.movhi  	r3,hi(.LC39) # movsi_high
	.loc 1 48 0
	l.lwz   	r20,0(r18)	 # SI load
.LVL240:
	.loc 1 49 0
	l.ori   	r3,r3,lo(.LC39) # movsi_lo_sum
	l.jal   	printf # call_value_internal	# delay slot filled
	l.sw    	0(r1),r20	 # SI store
.LVL241:
	l.ori   	r3,r14,0	 # move reg to reg
.LVL242:
.L57:
	.loc 1 52 0 discriminator 3
#APP
# 52 "hmcmd.c" 1
	l.nop
# 0 "" 2
#NO_APP
	l.addi  	r3,r3,-1 # addsi3
	.loc 1 50 0 discriminator 3
	l.sfnei	r3,0 # cmpsi_ne
	l.bf	.L57
	l.nop			# nop delay slot
.LVL243:
.L79:
.LBE28:
.LBB29:
	.loc 1 151 0
	l.lwz   	r4,0(r18)	 # SI load
.LVL244:
	.loc 1 152 0
	l.movhi  	r3,hi(.LC40) # movsi_high
	l.sw    	0(r1),r4	 # SI store
	l.ori   	r3,r3,lo(.LC40) # movsi_lo_sum
	l.jal   	printf # call_value_internal	# delay slot filled
	l.sub   	r14,r4,r20 # subsi3
.LVL245:
	.loc 1 155 0
	l.movhi  	r3,hi(.LC4) # movsi_high
	l.sw    	0(r1),r14	 # SI store
	l.ori   	r3,r3,lo(.LC4) # movsi_lo_sum
	l.jal   	printf # call_value_internal	# delay slot filled
	l.addi  	r18,r0,10	 # move immediate I
.LVL246:
	.loc 1 157 0
	l.addi  	r3,r0,100	 # move immediate I
	.loc 1 158 0
	l.movhi 	r4,hi(49938432)	 # move immediate M
	.loc 1 157 0
	l.div   	r14,r14,r3 # divsi3
.LVL247:
	.loc 1 158 0
	l.ori   	r4,r4,61568 # iorsi3
	.loc 1 161 0
	l.movhi  	r3,hi(.LC41) # movsi_high
	.loc 1 158 0
	l.mul   	r14,r14,r4 # mulsi3
.LVL248:
	.loc 1 161 0
	l.ori   	r3,r3,lo(.LC41) # movsi_lo_sum
	l.jal   	printf # call_value_internal	# delay slot filled
	l.sw    	0(r1),r14	 # SI store
.LVL249:
	.loc 1 162 0
	l.movhi 	r3,hi(9961472)	 # move immediate M
	l.ori   	r3,r3,38528 # iorsi3
	l.jal   	__floatsisf # call_value_internal	# delay slot filled
	l.div   	r3,r14,r3 # divsi3
.LVL250:
	.loc 1 163 0
	l.movhi  	r4,hi(.LC42) # movsi_high
	l.ori   	r3,r11,0	 # movsf
	l.ori   	r4,r4,lo(.LC42) # movsi_lo_sum
	.loc 1 162 0
	l.ori   	r14,r11,0	 # movsf
.LVL251:
	.loc 1 163 0
	l.jal   	__mulsf3 # call_value_internal	# delay slot filled
	l.lwz   	r4,0(r4)	 # movsf
.LVL252:
	l.jal   	__fixsfsi # call_value_internal	# delay slot filled
	l.ori   	r3,r11,0	 # movsf
.LVL253:
	l.div   	r5,r11,r18 # divsi3
	l.add   	r5,r5,r5 # addsi3
	l.movhi  	r3,hi(.LC43) # movsi_high
	l.slli  	r6,r5,2 # ashlsi3
	l.ori   	r3,r3,lo(.LC43) # movsi_lo_sum
	l.add   	r5,r5,r6 # addsi3
	l.lwz   	r4,0(r3)	 # movsf
	l.sub   	r11,r11,r5 # subsi3
	l.ori   	r3,r14,0	 # movsf
	l.jal   	__mulsf3 # call_value_internal	# delay slot filled
	l.sw    	8(r1),r11	 # SI store
.LVL254:
	l.jal   	__fixsfsi # call_value_internal	# delay slot filled
	l.ori   	r3,r11,0	 # movsf
.LVL255:
	l.div   	r18,r11,r18 # divsi3
	l.add   	r18,r18,r18 # addsi3
	l.ori   	r3,r14,0	 # movsf
	l.slli  	r4,r18,2 # ashlsi3
	l.add   	r18,r18,r4 # addsi3
.LBE29:
	l.j     	.L78 # jump_internal	# delay slot filled
	l.sub   	r11,r11,r18 # subsi3
.LVL256:
.L84:
.LBB30:
.LBB31:
	.loc 1 228 0
	l.movhi  	r18,hi(timestamp) # movsi_high
.LVL257:
	l.ori   	r18,r18,lo(timestamp) # movsi_lo_sum
	l.lwz   	r11,0(r18)	 # SI load
.LVL258:
	.loc 1 229 0
#APP
# 229 "hmcmd.c" 1
	l.nop
# 0 "" 2
	.loc 1 230 0
# 230 "hmcmd.c" 1
	l.nop
# 0 "" 2
.LVL259:
#NO_APP
	l.movhi 	r5,hi(9961472)	 # move immediate M
	.loc 1 226 0
	l.addi  	r4,r0,99	 # move immediate I
	.loc 1 230 0
	l.ori   	r5,r5,38528 # iorsi3
	.loc 1 225 0
	l.ori   	r3,r14,0	 # move reg to reg
	.loc 1 224 0
	l.addi  	r7,r0,2	 # move immediate I
.LVL260:
.L50:
.LBB32:
	.loc 1 235 0
	l.add   	r6,r4,r4 # addsi3
	l.addi  	r5,r5,-1 # addsi3
	l.slli  	r8,r6,2 # ashlsi3
	.loc 1 231 0
	l.sfnei	r5,0 # cmpsi_ne
	.loc 1 233 0
	l.add   	r7,r7,r3 # addsi3
.LVL261:
	.loc 1 234 0
	l.sub   	r3,r3,r4 # subsi3
.LVL262:
	.loc 1 231 0
	l.bf	.L50	# delay slot filled
	l.add   	r4,r6,r8 # addsi3
.LBE32:
	.loc 1 237 0
#APP
# 237 "hmcmd.c" 1
	l.nop
# 0 "" 2
	.loc 1 238 0
# 238 "hmcmd.c" 1
	l.nop
# 0 "" 2
	.loc 1 239 0
#NO_APP
	l.lwz   	r5,0(r18)	 # SI load
.LVL263:
	.loc 1 242 0
	l.movhi 	r14,hi(49938432)	 # move immediate M
.LVL264:
	.loc 1 240 0
	l.sub   	r18,r5,r11 # subsi3
.LVL265:
	.loc 1 241 0
	l.addi  	r5,r0,100	 # move immediate I
.LVL266:
	.loc 1 242 0
	l.ori   	r14,r14,61568 # iorsi3
	.loc 1 241 0
	l.div   	r5,r18,r5 # divsi3
.LVL267:
	.loc 1 242 0
	l.mul   	r14,r5,r14 # mulsi3
.LVL268:
	.loc 1 245 0
	l.sw    	4(r1),r3	 # SI store
	l.addi  	r5,r0,10	 # move immediate I
	l.movhi  	r3,hi(.LC3) # movsi_high
.LVL269:
	l.sw    	12(r1),r5	 # SI store
	l.sw    	8(r1),r4	 # SI store
	l.sw    	0(r1),r7	 # SI store
	l.jal   	printf # call_value_internal	# delay slot filled
	l.ori   	r3,r3,lo(.LC3) # movsi_lo_sum
.LVL270:
	.loc 1 246 0
	l.movhi  	r3,hi(.LC4) # movsi_high
	l.sw    	0(r1),r18	 # SI store
	l.jal   	printf # call_value_internal	# delay slot filled
	l.ori   	r3,r3,lo(.LC4) # movsi_lo_sum
.LVL271:
	.loc 1 247 0
	l.movhi 	r3,hi(-40042496)	 # move immediate M
	l.ori   	r3,r3,42496 # iorsi3
	l.add   	r14,r14,r3 # addsi3
.LVL272:
	l.movhi  	r3,hi(.LC5) # movsi_high
	l.sw    	0(r1),r14	 # SI store
	l.jal   	printf # call_value_internal	# delay slot filled
	l.ori   	r3,r3,lo(.LC5) # movsi_lo_sum
.LVL273:
.LBE31:
.LBE30:
	.loc 1 213 0
	l.j     	.L90 # jump_internal	# delay slot filled
	l.ori	r1,r2,0	# deallocate frame
.LVL274:
.L83:
	.loc 1 25 0
	l.movhi  	r3,hi(.LC29) # movsi_high
	l.jal   	printf # call_value_internal	# delay slot filled
	l.ori   	r3,r3,lo(.LC29) # movsi_lo_sum
.LVL275:
	l.j     	.L90 # jump_internal	# delay slot filled
	l.ori	r1,r2,0	# deallocate frame
.L85:
	.loc 1 29 0
	l.jal   	branch_measurement# call_internal
	l.nop			# nop delay slot
.LVL276:
	l.j     	.L90 # jump_internal	# delay slot filled
	l.ori	r1,r2,0	# deallocate frame
.L86:
	.loc 1 31 0
	l.jal   	do_count# call_internal
	l.nop			# nop delay slot
.LVL277:
	l.j     	.L90 # jump_internal	# delay slot filled
	l.ori	r1,r2,0	# deallocate frame
.L87:
	.loc 1 33 0
	l.jal   	do_count_cmov# call_internal
	l.nop			# nop delay slot
.LVL278:
	l.j     	.L90 # jump_internal	# delay slot filled
	l.ori	r1,r2,0	# deallocate frame
.L88:
	.loc 1 35 0
	l.jal   	do_count_unrolled# call_internal
	l.nop			# nop delay slot
.LVL279:
	l.j     	.L90 # jump_internal	# delay slot filled
	l.ori	r1,r2,0	# deallocate frame
.L89:
	.loc 1 37 0
	l.jal   	rawhaz# call_internal
	l.nop			# nop delay slot
.LVL280:
	l.j     	.L90 # jump_internal	# delay slot filled
	l.ori	r1,r2,0	# deallocate frame
.L56:
	.loc 1 69 0
	l.lwz   	r3,0(r18)	 # SI load
	l.jal   	strcmp # call_value_internal	# delay slot filled
	l.ori   	r4,r4,lo(.LC44) # movsi_lo_sum
.LVL281:
	l.sfnei	r11,0 # cmpsi_ne
	l.bf	.L58	# delay slot filled
	l.movhi  	r4,hi(.LC46) # movsi_high
.LVL282:
.LBB33:
	.loc 1 76 0
	l.movhi 	r14,hi(9961472)	 # move immediate M
.LVL283:
	l.movhi  	r3,hi(.LC45) # movsi_high
	l.ori   	r14,r14,38528 # iorsi3
	l.ori   	r3,r3,lo(.LC45) # movsi_lo_sum
	l.sw    	0(r1),r14	 # SI store
.LVL284:
	l.jal   	printf # call_value_internal	# delay slot filled
	l.movhi  	r18,hi(timestamp) # movsi_high
.LVL285:
	.loc 1 77 0
	l.movhi 	r4,hi(49938432)	 # move immediate M
	l.movhi  	r3,hi(.LC38) # movsi_high
	l.ori   	r4,r4,61568 # iorsi3
	l.ori   	r3,r3,lo(.LC38) # movsi_lo_sum
	l.sw    	4(r1),r4	 # SI store
	l.addi  	r4,r0,100	 # move immediate I
	.loc 1 79 0
	l.ori   	r18,r18,lo(timestamp) # movsi_lo_sum
	.loc 1 77 0
	l.jal   	printf # call_value_internal	# delay slot filled
	l.sw    	0(r1),r4	 # SI store
.LVL286:
	.loc 1 80 0
	l.movhi  	r3,hi(.LC39) # movsi_high
	.loc 1 79 0
	l.lwz   	r20,0(r18)	 # SI load
.LVL287:
	.loc 1 80 0
	l.ori   	r3,r3,lo(.LC39) # movsi_lo_sum
	l.jal   	printf # call_value_internal	# delay slot filled
	l.sw    	0(r1),r20	 # SI store
.LVL288:
	l.ori   	r3,r14,0	 # move reg to reg
.LVL289:
.L59:
	.loc 1 85 0 discriminator 3
#APP
# 85 "hmcmd.c" 1
	l.add r9, r7, r8
# 0 "" 2
#NO_APP
	l.addi  	r3,r3,-1 # addsi3
	.loc 1 84 0 discriminator 3
	l.sfnei	r3,0 # cmpsi_ne
	l.bf	.L59
	l.nop			# nop delay slot
	l.j     	.L79 # jump_internal
	l.nop			# nop delay slot
.LVL290:
.L66:
.LBE33:
.LBB34:
	.loc 1 183 0
	l.sw    	0(r1),r14	 # SI store
	l.ori   	r3,r3,lo(.LC37) # movsi_lo_sum
.LVL291:
	l.jal   	printf # call_value_internal	# delay slot filled
	l.movhi  	r18,hi(timestamp) # movsi_high
.LVL292:
	.loc 1 184 0
	l.movhi 	r4,hi(49938432)	 # move immediate M
	l.movhi  	r3,hi(.LC38) # movsi_high
	l.ori   	r4,r4,61568 # iorsi3
	l.ori   	r3,r3,lo(.LC38) # movsi_lo_sum
	l.sw    	4(r1),r4	 # SI store
	l.addi  	r4,r0,100	 # move immediate I
	.loc 1 186 0
	l.ori   	r18,r18,lo(timestamp) # movsi_lo_sum
	.loc 1 184 0
	l.jal   	printf # call_value_internal	# delay slot filled
	l.sw    	0(r1),r4	 # SI store
.LVL293:
	.loc 1 187 0
	l.movhi  	r3,hi(.LC39) # movsi_high
	.loc 1 186 0
	l.lwz   	r20,0(r18)	 # SI load
.LVL294:
	.loc 1 187 0
	l.ori   	r3,r3,lo(.LC39) # movsi_lo_sum
	l.jal   	printf # call_value_internal	# delay slot filled
	l.sw    	0(r1),r20	 # SI store
.LVL295:
	l.j     	.L68 # jump_internal
	l.nop			# nop delay slot
.LVL296:
.L58:
.LBE34:
	.loc 1 101 0
	l.lwz   	r3,0(r18)	 # SI load
	l.jal   	strcmp # call_value_internal	# delay slot filled
	l.ori   	r4,r4,lo(.LC46) # movsi_lo_sum
.LVL297:
	l.sfnei	r11,0 # cmpsi_ne
	l.bf	.L60	# delay slot filled
	l.movhi  	r4,hi(.LC48) # movsi_high
.LVL298:
.LBB35:
	.loc 1 108 0
	l.movhi 	r14,hi(9961472)	 # move immediate M
.LVL299:
	l.movhi  	r3,hi(.LC47) # movsi_high
	l.ori   	r14,r14,38528 # iorsi3
	l.ori   	r3,r3,lo(.LC47) # movsi_lo_sum
	l.sw    	0(r1),r14	 # SI store
.LVL300:
	l.jal   	printf # call_value_internal	# delay slot filled
	l.movhi  	r18,hi(timestamp) # movsi_high
.LVL301:
	.loc 1 109 0
	l.addi  	r3,r0,100	 # move immediate I
	.loc 1 111 0
	l.ori   	r18,r18,lo(timestamp) # movsi_lo_sum
	.loc 1 109 0
	l.sw    	0(r1),r3	 # SI store
	l.movhi 	r3,hi(49938432)	 # move immediate M
	l.ori   	r3,r3,61568 # iorsi3
	l.sw    	4(r1),r3	 # SI store
	l.movhi  	r3,hi(.LC38) # movsi_high
	l.jal   	printf # call_value_internal	# delay slot filled
	l.ori   	r3,r3,lo(.LC38) # movsi_lo_sum
.LVL302:
	.loc 1 112 0
	l.movhi  	r3,hi(.LC39) # movsi_high
	.loc 1 111 0
	l.lwz   	r20,0(r18)	 # SI load
.LVL303:
	.loc 1 112 0
	l.ori   	r3,r3,lo(.LC39) # movsi_lo_sum
	l.jal   	printf # call_value_internal	# delay slot filled
	l.sw    	0(r1),r20	 # SI store
.LVL304:
	.loc 1 114 0
#APP
# 114 "hmcmd.c" 1
	l.addi r7,r8,10
# 0 "" 2
	.loc 1 115 0
# 115 "hmcmd.c" 1
	l.addi r8,r7,20
# 0 "" 2
#NO_APP
	l.ori   	r3,r14,0	 # move reg to reg
.LVL305:
.L61:
	.loc 1 117 0 discriminator 3
#APP
# 117 "hmcmd.c" 1
	l.div r9, r7, r8
# 0 "" 2
#NO_APP
	l.addi  	r3,r3,-1 # addsi3
	.loc 1 116 0 discriminator 3
	l.sfnei	r3,0 # cmpsi_ne
	l.bf	.L61
	l.nop			# nop delay slot
	l.j     	.L79 # jump_internal
	l.nop			# nop delay slot
.LVL306:
.L60:
.LBE35:
	.loc 1 133 0
	l.lwz   	r3,0(r18)	 # SI load
	l.jal   	strcmp # call_value_internal	# delay slot filled
	l.ori   	r4,r4,lo(.LC48) # movsi_lo_sum
.LVL307:
	l.sfeqi	r11,0 # cmpsi_eq
	l.bnf	.L70	# delay slot filled
	l.movhi 	r14,hi(9961472)	 # move immediate M
.LVL308:
.LBB36:
	.loc 1 140 0
	l.movhi  	r3,hi(.LC49) # movsi_high
	l.ori   	r14,r14,38528 # iorsi3
	l.ori   	r3,r3,lo(.LC49) # movsi_lo_sum
	l.sw    	0(r1),r14	 # SI store
.LVL309:
	l.jal   	printf # call_value_internal	# delay slot filled
	l.movhi  	r18,hi(timestamp) # movsi_high
.LVL310:
	.loc 1 141 0
	l.movhi 	r4,hi(49938432)	 # move immediate M
	l.movhi  	r3,hi(.LC38) # movsi_high
	l.ori   	r4,r4,61568 # iorsi3
	l.ori   	r3,r3,lo(.LC38) # movsi_lo_sum
	l.sw    	4(r1),r4	 # SI store
	l.addi  	r4,r0,100	 # move immediate I
	.loc 1 143 0
	l.ori   	r18,r18,lo(timestamp) # movsi_lo_sum
	.loc 1 141 0
	l.jal   	printf # call_value_internal	# delay slot filled
	l.sw    	0(r1),r4	 # SI store
.LVL311:
	.loc 1 144 0
	l.movhi  	r3,hi(.LC39) # movsi_high
	.loc 1 143 0
	l.lwz   	r20,0(r18)	 # SI load
.LVL312:
	.loc 1 144 0
	l.ori   	r3,r3,lo(.LC39) # movsi_lo_sum
	l.jal   	printf # call_value_internal	# delay slot filled
	l.sw    	0(r1),r20	 # SI store
.LVL313:
	l.ori   	r3,r14,0	 # move reg to reg
.LVL314:
.L63:
	.loc 1 149 0 discriminator 3
#APP
# 149 "hmcmd.c" 1
	l.lbz r9, 1(r8)
# 0 "" 2
#NO_APP
	l.addi  	r3,r3,-1 # addsi3
	.loc 1 148 0 discriminator 3
	l.sfnei	r3,0 # cmpsi_ne
	l.bf	.L63
	l.nop			# nop delay slot
	l.j     	.L79 # jump_internal
	l.nop			# nop delay slot
.LBE36:
	.cfi_endproc
.LFE0:
	.size	hmcmd_cmd, .-hmcmd_cmd
.Letext0:
	.file 2 "/home/student/hmca/orpmon/include/common.h"
	.file 3 "/home/student/hmca/orpmon/include/string.h"
	.file 4 "/home/student/hmca/orpmon/include/support.h"